; Function Attrs: nounwind uwtable
define range(i32 -2147483648, 1) i32 @ff_cbs_read_extradata(ptr noundef %0, ptr noundef %1, ptr noundef readonly captures(none) %2) local_unnamed_addr #3 {
  %4 = getelementptr inbounds nuw i8, ptr %2, i64 16
  %5 = load ptr, ptr %4, align 8, !tbaa !43
  %6 = getelementptr inbounds nuw i8, ptr %2, i64 24
  %7 = load i32, ptr %6, align 8, !tbaa !48
  %8 = sext i32 %7 to i64
  %9 = tail call fastcc i32 @cbs_read_data(ptr noundef %0, ptr noundef %1, ptr noundef null, ptr noundef %5, i64 noundef %8, i32 noundef 1)
  ret i32 %9
}